target datalayout = "e-m:e-p270:32:32-p271:32:32-p272:64:64-i64:64-i128:128-f80:128-n8:16:32:64-S128"
target triple = "x86_64-pc-linux-gnu"

%struct.RBasic = type { i64, i64 }
%struct.RString = type { %struct.RBasic, i64, %union.anon.37 }
%union.anon.37 = type { %struct.anon.38 }
%struct.anon.38 = type { ptr, %union.anon.39 }
%union.anon.39 = type { i64 }

; Function Attrs: inlinehint nounwind sspstrong willreturn memory(read) uwtable
define internal i64 @RSTRING_LEN(i64 noundef %0) #3 {
  %2 = alloca i64, align 8
  store i64 %0, ptr %2, align 8, !tbaa !17
  %3 = load i64, ptr %2, align 8, !tbaa !17
  %4 = inttoptr i64 %3 to ptr
  %5 = getelementptr inbounds nuw %struct.RString, ptr %4, i32 0, i32 1
  %6 = load i64, ptr %5, align 8, !tbaa !291
  ret i64 %6
}

; Function Attrs: nounwind sspstrong uwtable
define dso_local i64 @rb_iseq_disasm(ptr noundef %0) #0 {
  %2 = alloca ptr, align 8
  %3 = alloca i64, align 8
  store ptr %0, ptr %2, align 8, !tbaa !7
  call void @llvm.lifetime.start.p0(i64 8, ptr %3) #24
  %4 = load ptr, ptr %2, align 8, !tbaa !7
  %5 = call i64 @rb_str_new_static(ptr noundef null, i64 noundef 0)
  %6 = call i64 @rb_iseq_disasm_recursive(ptr noundef %4, i64 noundef %5)
  store i64 %6, ptr %3, align 8, !tbaa !17
  %7 = load i64, ptr %3, align 8, !tbaa !17
  %8 = load i64, ptr %3, align 8, !tbaa !17
  %9 = call i64 @RSTRING_LEN(i64 noundef %8) #25
  %10 = call i64 @rb_str_resize(i64 noundef %7, i64 noundef %9)
  %11 = load i64, ptr %3, align 8, !tbaa !17
  call void @llvm.lifetime.end.p0(i64 8, ptr %3) #24
  ret i64 %11
}