; Function Attrs: nounwind sspstrong uwtable
define dso_local noundef i64 @rb_iseq_disasm(ptr noundef %0) local_unnamed_addr #0 {
  %2 = tail call i64 @rb_str_new_static(ptr noundef null, i64 noundef 0) #20
  %3 = tail call fastcc i64 @rb_iseq_disasm_recursive(ptr noundef %0, i64 noundef %2)
  %4 = inttoptr i64 %3 to ptr
  %5 = getelementptr inbounds nuw i8, ptr %4, i64 16
  %6 = load i64, ptr %5, align 8, !tbaa !273
  %7 = tail call i64 @rb_str_resize(i64 noundef %3, i64 noundef %6) #20
  ret i64 %3
}